target datalayout = "e-m:e-p270:32:32-p271:32:32-p272:64:64-i64:64-i128:128-f80:128-n8:16:32:64-S128"
target triple = "x86_64-pc-linux-gnu"

%union.pthread_cond_t = type { %struct.__pthread_cond_s }
%struct.__pthread_cond_s = type { %union.__atomic_wide_counter, %union.__atomic_wide_counter, [2 x i32], [2 x i32], i32, i32, [2 x i32] }
%union.__atomic_wide_counter = type { i64 }
%union.pthread_mutex_t = type { %struct.__pthread_mutex_s }
%struct.__pthread_mutex_s = type { i32, i32, i32, i32, i32, i16, i16, %struct.__pthread_internal_list }
%struct.__pthread_internal_list = type { ptr, ptr }
%struct.slurmctld_config = type { ptr, %union.pthread_cond_t, %union.pthread_mutex_t, %union.pthread_cond_t, %union.pthread_mutex_t, i64, [64 x i8], [64 x i8], i8, i8, i32, i64, i8, %union.pthread_cond_t, %union.pthread_mutex_t, i64, i64, i64, i64 }

@purge_thread_cond = dso_local global %union.pthread_cond_t zeroinitializer, align 8
@purge_thread_lock = dso_local global %union.pthread_mutex_t zeroinitializer, align 8
@slurmctld_config = dso_local global { ptr, %union.pthread_cond_t, %union.pthread_mutex_t, %union.pthread_cond_t, %union.pthread_mutex_t, i64, [64 x i8], [64 x i8], i8, i8, [2 x i8], i32, i64, i8, [7 x i8], %union.pthread_cond_t, %union.pthread_mutex_t, i64, i64, i64, i64 } zeroinitializer, align 8
@.str.43 = private unnamed_addr constant [29 x i8] c"%s: pthread_mutex_lock(): %m\00", align 1
@.str.44 = private unnamed_addr constant [31 x i8] c"%s: pthread_mutex_unlock(): %m\00", align 1
@.str.59 = private unnamed_addr constant [13 x i8] c"controller.c\00", align 1
@.str.222 = private unnamed_addr constant [34 x i8] c"%s:%d %s: pthread_cond_wait(): %m\00", align 1
@__func__._purge_files_thread = private unnamed_addr constant [20 x i8] c"_purge_files_thread\00", align 1
@.str.261 = private unnamed_addr constant [31 x i8] c"%s: starting, %d jobs to purge\00", align 1
@purge_files_list = external global ptr, align 8
@.str.262 = private unnamed_addr constant [32 x i8] c"%s: purging files from JobId=%u\00", align 1

; Function Attrs: nounwind uwtable
define internal ptr @_purge_files_thread(ptr noundef %0) #0 {
  %2 = alloca ptr, align 8
  %3 = alloca ptr, align 8
  %4 = alloca i32, align 4
  %5 = alloca i32, align 4
  %6 = alloca i32, align 4
  store ptr %0, ptr %2, align 8
  call void @llvm.lifetime.start.p0(i64 8, ptr %3) #11
  br label %7

7:                                                ; preds = %1
  call void @llvm.lifetime.start.p0(i64 4, ptr %4) #11
  %8 = call i32 @pthread_mutex_lock(ptr noundef @purge_thread_lock) #11
  store i32 %8, ptr %4, align 4
  %9 = load i32, ptr %4, align 4
  %10 = icmp ne i32 %9, 0
  br i1 %10, label %11, label %14

11:                                               ; preds = %7
  %12 = load i32, ptr %4, align 4
  %13 = call ptr @__errno_location() #14
  store i32 %12, ptr %13, align 4
  call void (ptr, ...) @fatal_abort(ptr noundef @.str.43, ptr noundef @__func__._purge_files_thread) #12
  unreachable

14:                                               ; preds = %7
  call void @llvm.lifetime.end.p0(i64 4, ptr %4) #11
  br label %15

15:                                               ; preds = %14
  br label %16

16:                                               ; preds = %15
  br label %17

17:                                               ; preds = %64, %16
  %18 = load i64, ptr getelementptr inbounds nuw (%struct.slurmctld_config, ptr @slurmctld_config, i32 0, i32 11), align 8
  %19 = icmp ne i64 %18, 0
  %20 = xor i1 %19, true
  br i1 %20, label %21, label %65

21:                                               ; preds = %17
  br label %22

22:                                               ; preds = %21
  call void @llvm.lifetime.start.p0(i64 4, ptr %5) #11
  %23 = call i32 @pthread_cond_wait(ptr noundef @purge_thread_cond, ptr noundef @purge_thread_lock)
  store i32 %23, ptr %5, align 4
  %24 = load i32, ptr %5, align 4
  %25 = icmp ne i32 %24, 0
  br i1 %25, label %26, label %30

26:                                               ; preds = %22
  %27 = load i32, ptr %5, align 4
  %28 = call ptr @__errno_location() #14
  store i32 %27, ptr %28, align 4
  %29 = call i32 (ptr, ...) @error(ptr noundef @.str.222, ptr noundef @.str.59, i32 noundef 3864, ptr noundef @__func__._purge_files_thread)
  br label %30

30:                                               ; preds = %26, %22
  call void @llvm.lifetime.end.p0(i64 4, ptr %5) #11
  br label %31

31:                                               ; preds = %30
  br label %32

32:                                               ; preds = %31
  br label %33

33:                                               ; preds = %32
  br label %34

34:                                               ; preds = %33
  %35 = call i32 @get_log_level()
  %36 = icmp sge i32 %35, 6
  br i1 %36, label %37, label %40

37:                                               ; preds = %34
  %38 = load ptr, ptr @purge_files_list, align 8
  %39 = call i32 @list_count(ptr noundef %38)
  call void (i32, ptr, ...) @log_var(i32 noundef 6, ptr noundef @.str.261, ptr noundef @__func__._purge_files_thread, i32 noundef %39)
  br label %40

40:                                               ; preds = %37, %34
  br label %41

41:                                               ; preds = %40
  br label %42

42:                                               ; preds = %41
  br label %43

43:                                               ; preds = %42
  br label %44

44:                                               ; preds = %43
  br label %45

45:                                               ; preds = %61, %44
  %46 = load ptr, ptr @purge_files_list, align 8
  %47 = call ptr @list_dequeue(ptr noundef %46)
  store ptr %47, ptr %3, align 8
  %48 = icmp ne ptr %47, null
  br i1 %48, label %49, label %64

49:                                               ; preds = %45
  br label %50

50:                                               ; preds = %49
  br label %51

51:                                               ; preds = %50
  %52 = call i32 @get_log_level()
  %53 = icmp sge i32 %52, 6
  br i1 %53, label %54, label %57

54:                                               ; preds = %51
  %55 = load ptr, ptr %3, align 8
  %56 = load i32, ptr %55, align 4
  call void (i32, ptr, ...) @log_var(i32 noundef 6, ptr noundef @.str.262, ptr noundef @__func__._purge_files_thread, i32 noundef %56)
  br label %57

57:                                               ; preds = %54, %51
  br label %58

58:                                               ; preds = %57
  br label %59

59:                                               ; preds = %58
  br label %60

60:                                               ; preds = %59
  br label %61

61:                                               ; preds = %60
  %62 = load ptr, ptr %3, align 8
  %63 = load i32, ptr %62, align 4
  call void @delete_job_desc_files(i32 noundef %63)
  call void @slurm_xfree(ptr noundef %3)
  br label %45, !llvm.loop !25

64:                                               ; preds = %45
  br label %17, !llvm.loop !26

65:                                               ; preds = %17
  br label %66

66:                                               ; preds = %65
  call void @llvm.lifetime.start.p0(i64 4, ptr %6) #11
  %67 = call i32 @pthread_mutex_unlock(ptr noundef @purge_thread_lock) #11
  store i32 %67, ptr %6, align 4
  %68 = load i32, ptr %6, align 4
  %69 = icmp ne i32 %68, 0
  br i1 %69, label %70, label %73

70:                                               ; preds = %66
  %71 = load i32, ptr %6, align 4
  %72 = call ptr @__errno_location() #14
  store i32 %71, ptr %72, align 4
  call void (ptr, ...) @fatal_abort(ptr noundef @.str.44, ptr noundef @__func__._purge_files_thread) #12
  unreachable

73:                                               ; preds = %66
  call void @llvm.lifetime.end.p0(i64 4, ptr %6) #11
  br label %74

74:                                               ; preds = %73
  br label %75

75:                                               ; preds = %74
  call void @llvm.lifetime.end.p0(i64 8, ptr %3) #11
  ret ptr null
}