; Function Attrs: nounwind uwtable
define internal noalias noundef ptr @_purge_files_thread(ptr readnone captures(none) %0) #6 {
  %2 = alloca ptr, align 8
  call void @llvm.lifetime.start.p0(i64 8, ptr nonnull %2) #19
  %3 = tail call i32 @pthread_mutex_lock(ptr noundef nonnull @purge_thread_lock) #19
  %.not = icmp eq i32 %3, 0
  br i1 %.not, label %.preheader, label %5

.preheader:                                       ; preds = %1
  %4 = load i64, ptr getelementptr inbounds nuw (i8, ptr @slurmctld_config, i64 328), align 8
  %.not813 = icmp eq i64 %4, 0
  br i1 %.not813, label %.lr.ph14, label %._crit_edge

5:                                                ; preds = %1
  %6 = tail call ptr @__errno_location() #21
  store i32 %3, ptr %6, align 4
  tail call void (ptr, ...) @fatal_abort(ptr noundef nonnull @.str.43, ptr noundef nonnull @__func__._purge_files_thread) #20
  unreachable

.loopexit:                                        ; preds = %26, %18
  %7 = load i64, ptr getelementptr inbounds nuw (i8, ptr @slurmctld_config, i64 328), align 8
  %.not8 = icmp eq i64 %7, 0
  br i1 %.not8, label %.lr.ph14, label %._crit_edge, !llvm.loop !25

.lr.ph14:                                         ; preds = %.preheader, %.loopexit
  %8 = call i32 @pthread_cond_wait(ptr noundef nonnull @purge_thread_cond, ptr noundef nonnull @purge_thread_lock) #19
  %.not10 = icmp eq i32 %8, 0
  br i1 %.not10, label %12, label %9

9:                                                ; preds = %.lr.ph14
  %10 = tail call ptr @__errno_location() #21
  store i32 %8, ptr %10, align 4
  %11 = call i32 (ptr, ...) @error(ptr noundef nonnull @.str.222, ptr noundef nonnull @.str.59, i32 noundef 3864, ptr noundef nonnull @__func__._purge_files_thread) #19
  br label %12

12:                                               ; preds = %9, %.lr.ph14
  %13 = call i32 @get_log_level() #19
  %14 = icmp sgt i32 %13, 5
  br i1 %14, label %15, label %18

15:                                               ; preds = %12
  %16 = load ptr, ptr @purge_files_list, align 8
  %17 = call i32 @list_count(ptr noundef %16) #19
  call void (i32, ptr, ...) @log_var(i32 noundef 6, ptr noundef nonnull @.str.261, ptr noundef nonnull @__func__._purge_files_thread, i32 noundef %17) #19
  br label %18

18:                                               ; preds = %15, %12
  %19 = load ptr, ptr @purge_files_list, align 8
  %20 = call ptr @list_dequeue(ptr noundef %19) #19
  store ptr %20, ptr %2, align 8
  %.not1112 = icmp eq ptr %20, null
  br i1 %.not1112, label %.loopexit, label %.lr.ph

.lr.ph:                                           ; preds = %18, %26
  %21 = call i32 @get_log_level() #19
  %22 = icmp sgt i32 %21, 5
  br i1 %22, label %23, label %26

23:                                               ; preds = %.lr.ph
  %24 = load ptr, ptr %2, align 8
  %25 = load i32, ptr %24, align 4
  call void (i32, ptr, ...) @log_var(i32 noundef 6, ptr noundef nonnull @.str.262, ptr noundef nonnull @__func__._purge_files_thread, i32 noundef %25) #19
  br label %26

26:                                               ; preds = %23, %.lr.ph
  %27 = load ptr, ptr %2, align 8
  %28 = load i32, ptr %27, align 4
  call void @delete_job_desc_files(i32 noundef %28) #19
  call void @slurm_xfree(ptr noundef nonnull %2) #19
  %29 = load ptr, ptr @purge_files_list, align 8
  %30 = call ptr @list_dequeue(ptr noundef %29) #19
  store ptr %30, ptr %2, align 8
  %.not11 = icmp eq ptr %30, null
  br i1 %.not11, label %.loopexit, label %.lr.ph, !llvm.loop !26

._crit_edge:                                      ; preds = %.loopexit, %.preheader
  %31 = call i32 @pthread_mutex_unlock(ptr noundef nonnull @purge_thread_lock) #19
  %.not9 = icmp eq i32 %31, 0
  br i1 %.not9, label %34, label %32

32:                                               ; preds = %._crit_edge
  %33 = tail call ptr @__errno_location() #21
  store i32 %31, ptr %33, align 4
  call void (ptr, ...) @fatal_abort(ptr noundef nonnull @.str.44, ptr noundef nonnull @__func__._purge_files_thread) #20
  unreachable

34:                                               ; preds = %._crit_edge
  call void @llvm.lifetime.end.p0(i64 8, ptr nonnull %2) #19
  ret ptr null
}